target datalayout = "e-m:e-p270:32:32-p271:32:32-p272:64:64-i64:64-i128:128-f80:128-n8:16:32:64-S128"
target triple = "x86_64-pc-linux-gnu"

%struct.Vec_Int_t_ = type { i32, i32, ptr }
%struct.Abc_Ntk_t_ = type { i32, i32, ptr, ptr, ptr, ptr, ptr, ptr, ptr, ptr, ptr, ptr, ptr, [11 x i32], i32, i32, i32, i32, ptr, i32, ptr, ptr, i32, i32, i32, double, i32, %struct.Vec_Int_t_, ptr, ptr, ptr, ptr, ptr, float, i32, ptr, ptr, ptr, ptr, ptr, ptr, ptr, ptr, ptr, ptr, ptr, ptr, ptr, ptr, ptr, ptr, ptr, ptr, ptr, ptr, ptr, ptr }
%struct.Sfm_Par_t_ = type { i32, i32, i32, i32, i32, i32, i32, i32, i32, i32, i32, i32, i32, i32, i32, i32, i32, i32, i32, i32, i32, i32, i32, i32, i32, i32, i32, i32, i32, i32, i32 }

@.str = private unnamed_addr constant [87 x i8] c"Currently \22mfs\22 cannot process the network containing nodes with more than 15 fanins.\0A\00", align 1
@.str.1 = private unnamed_addr constant [57 x i8] c"Conversion to SOP has failed due to low resource limit.\0A\00", align 1
@.str.2 = private unnamed_addr constant [44 x i8] c"The network has %d nodes changed by \22mfs\22.\0A\00", align 1

; Function Attrs: inlinehint nounwind uwtable
define internal i32 @Abc_NtkHasSop(ptr noundef %0) #3 {
  %2 = alloca ptr, align 8
  store ptr %0, ptr %2, align 8, !tbaa !3
  %3 = load ptr, ptr %2, align 8, !tbaa !3
  %4 = getelementptr inbounds nuw %struct.Abc_Ntk_t_, ptr %3, i32 0, i32 1
  %5 = load i32, ptr %4, align 4, !tbaa !113
  %6 = icmp eq i32 %5, 1
  %7 = zext i1 %6 to i32
  ret i32 %7
}

; Function Attrs: nounwind uwtable
define i32 @Abc_NtkPerformMfs(ptr noundef %0, ptr noundef %1) #0 {
  %3 = alloca i32, align 4
  %4 = alloca ptr, align 8
  %5 = alloca ptr, align 8
  %6 = alloca ptr, align 8
  %7 = alloca i32, align 4
  %8 = alloca i32, align 4
  %9 = alloca i32, align 4
  store ptr %0, ptr %4, align 8, !tbaa !3
  store ptr %1, ptr %5, align 8, !tbaa !105
  call void @llvm.lifetime.start.p0(i64 8, ptr %6) #11
  call void @llvm.lifetime.start.p0(i64 4, ptr %7) #11
  call void @llvm.lifetime.start.p0(i64 4, ptr %8) #11
  %10 = load ptr, ptr %4, align 8, !tbaa !3
  %11 = call i32 @Abc_NtkSweep(ptr noundef %10, i32 noundef 0)
  %12 = load ptr, ptr %4, align 8, !tbaa !3
  %13 = call i32 @Abc_NtkGetFaninMax(ptr noundef %12)
  store i32 %13, ptr %7, align 4, !tbaa !10
  %14 = load i32, ptr %7, align 4, !tbaa !10
  %15 = icmp sgt i32 %14, 15
  br i1 %15, label %16, label %17

16:                                               ; preds = %2
  call void (i32, ptr, ...) @Abc_Print(i32 noundef 1, ptr noundef @.str)
  store i32 1, ptr %3, align 4
  store i32 1, ptr %9, align 4
  br label %52

17:                                               ; preds = %2
  %18 = load ptr, ptr %4, align 8, !tbaa !3
  %19 = call i32 @Abc_NtkHasSop(ptr noundef %18)
  %20 = icmp ne i32 %19, 0
  br i1 %20, label %28, label %21

21:                                               ; preds = %17
  %22 = load ptr, ptr %4, align 8, !tbaa !3
  %23 = call i32 @Abc_NtkToSop(ptr noundef %22, i32 noundef -1, i32 noundef 1000000000)
  %24 = icmp ne i32 %23, 0
  br i1 %24, label %27, label %25

25:                                               ; preds = %21
  %26 = call i32 (ptr, ...) @printf(ptr noundef @.str.1)
  store i32 0, ptr %3, align 4
  store i32 1, ptr %9, align 4
  br label %52

27:                                               ; preds = %21
  br label %28

28:                                               ; preds = %27, %17
  %29 = load ptr, ptr %4, align 8, !tbaa !3
  %30 = load ptr, ptr %5, align 8, !tbaa !105
  %31 = getelementptr inbounds nuw %struct.Sfm_Par_t_, ptr %30, i32 0, i32 13
  %32 = load i32, ptr %31, align 4, !tbaa !107
  %33 = call ptr @Abc_NtkExtractMfs(ptr noundef %29, i32 noundef %32)
  store ptr %33, ptr %6, align 8, !tbaa !96
  %34 = load ptr, ptr %6, align 8, !tbaa !96
  %35 = load ptr, ptr %5, align 8, !tbaa !105
  %36 = call i32 @Sfm_NtkPerform(ptr noundef %34, ptr noundef %35)
  store i32 %36, ptr %8, align 4, !tbaa !10
  %37 = load i32, ptr %8, align 4, !tbaa !10
  %38 = icmp eq i32 %37, 0
  br i1 %38, label %39, label %40

39:                                               ; preds = %28
  br label %50

40:                                               ; preds = %28
  %41 = load ptr, ptr %4, align 8, !tbaa !3
  %42 = load ptr, ptr %6, align 8, !tbaa !96
  call void @Abc_NtkInsertMfs(ptr noundef %41, ptr noundef %42)
  %43 = load ptr, ptr %5, align 8, !tbaa !105
  %44 = getelementptr inbounds nuw %struct.Sfm_Par_t_, ptr %43, i32 0, i32 29
  %45 = load i32, ptr %44, align 4, !tbaa !109
  %46 = icmp ne i32 %45, 0
  br i1 %46, label %47, label %49

47:                                               ; preds = %40
  %48 = load i32, ptr %8, align 4, !tbaa !10
  call void (i32, ptr, ...) @Abc_Print(i32 noundef 1, ptr noundef @.str.2, i32 noundef %48)
  br label %49

49:                                               ; preds = %47, %40
  br label %50

50:                                               ; preds = %49, %39
  %51 = load ptr, ptr %6, align 8, !tbaa !96
  call void @Sfm_NtkFree(ptr noundef %51)
  store i32 1, ptr %3, align 4
  store i32 1, ptr %9, align 4
  br label %52

52:                                               ; preds = %50, %25, %16
  call void @llvm.lifetime.end.p0(i64 4, ptr %8) #11
  call void @llvm.lifetime.end.p0(i64 4, ptr %7) #11
  call void @llvm.lifetime.end.p0(i64 8, ptr %6) #11
  %53 = load i32, ptr %3, align 4
  ret i32 %53
}