; Function Attrs: nounwind uwtable
define range(i32 0, 2) i32 @Abc_NtkPerformMfs(ptr noundef %0, ptr noundef %1) local_unnamed_addr #0 {
  %3 = tail call i32 @Abc_NtkSweep(ptr noundef %0, i32 noundef 0) #16
  %4 = tail call i32 @Abc_NtkGetFaninMax(ptr noundef %0) #16
  %5 = icmp sgt i32 %4, 15
  br i1 %5, label %6, label %7

6:                                                ; preds = %2
  tail call void (i32, ptr, ...) @Abc_Print(i32 poison, ptr noundef nonnull @.str)
  br label %23

7:                                                ; preds = %2
  %8 = getelementptr i8, ptr %0, i64 4
  %.val = load i32, ptr %8, align 4, !tbaa !94
  %.not = icmp eq i32 %.val, 1
  br i1 %.not, label %12, label %9

9:                                                ; preds = %7
  %10 = tail call i32 @Abc_NtkToSop(ptr noundef nonnull %0, i32 noundef -1, i32 noundef 1000000000) #16
  %.not16 = icmp eq i32 %10, 0
  br i1 %.not16, label %11, label %12

11:                                               ; preds = %9
  %puts = tail call i32 @puts(ptr nonnull dereferenceable(1) @str)
  br label %23

12:                                               ; preds = %9, %7
  %13 = getelementptr inbounds nuw i8, ptr %1, i64 52
  %14 = load i32, ptr %13, align 4, !tbaa !95
  %15 = tail call ptr @Abc_NtkExtractMfs(ptr noundef nonnull %0, i32 noundef %14)
  %16 = tail call i32 @Sfm_NtkPerform(ptr noundef %15, ptr noundef %1) #16
  %17 = icmp eq i32 %16, 0
  br i1 %17, label %22, label %18

18:                                               ; preds = %12
  tail call void @Abc_NtkInsertMfs(ptr noundef nonnull %0, ptr noundef %15)
  %19 = getelementptr inbounds nuw i8, ptr %1, i64 116
  %20 = load i32, ptr %19, align 4, !tbaa !97
  %.not17 = icmp eq i32 %20, 0
  br i1 %.not17, label %22, label %21

21:                                               ; preds = %18
  tail call void (i32, ptr, ...) @Abc_Print(i32 poison, ptr noundef nonnull @.str.2, i32 noundef %16)
  br label %22

22:                                               ; preds = %18, %21, %12
  tail call void @Sfm_NtkFree(ptr noundef %15) #16
  br label %23

23:                                               ; preds = %22, %11, %6
  %.0 = phi i32 [ 1, %6 ], [ 1, %22 ], [ 0, %11 ]
  ret i32 %.0
}